; Function Attrs: mustprogress uwtable
define hidden void @_ZN10params_ref4initEv(ptr nocapture noundef nonnull align 8 dereferenceable(8) %this) local_unnamed_addr #3 align 2 personality ptr @__gxx_personality_v0 {
entry:
  %0 = load ptr, ptr %this, align 8
  %tobool.not = icmp eq ptr %0, null
  br i1 %tobool.not, label %if.then, label %if.else

if.then:                                          ; preds = %entry
  %call = tail call noalias noundef ptr @_ZN6memory8allocateEm(i64 noundef 16)
  store ptr null, ptr %call, align 8
  %m_ref_count.i = getelementptr inbounds i8, ptr %call, i64 8
  store i32 0, ptr %m_ref_count.i, align 4
  store ptr %call, ptr %this, align 8
  %1 = atomicrmw add ptr %m_ref_count.i, i32 1 seq_cst, align 4
  br label %if.end11

if.else:                                          ; preds = %entry
  %m_ref_count = getelementptr inbounds i8, ptr %0, i64 8
  %2 = load atomic i32, ptr %m_ref_count seq_cst, align 4
  %cmp = icmp ugt i32 %2, 1
  br i1 %cmp, label %if.then6, label %if.end11

if.then6:                                         ; preds = %if.else
  %3 = load ptr, ptr %this, align 8
  %call8 = tail call noalias noundef ptr @_ZN6memory8allocateEm(i64 noundef 16)
  store ptr null, ptr %call8, align 8
  %m_ref_count.i3 = getelementptr inbounds i8, ptr %call8, i64 8
  store i32 0, ptr %m_ref_count.i3, align 4
  store ptr %call8, ptr %this, align 8
  %4 = atomicrmw add ptr %m_ref_count.i3, i32 1 seq_cst, align 4
  tail call void @_ZN10params_ref9copy_coreEPK6params(ptr noundef nonnull align 8 dereferenceable(8) %this, ptr noundef %3)
  %m_ref_count.i5 = getelementptr inbounds i8, ptr %3, i64 8
  %5 = atomicrmw sub ptr %m_ref_count.i5, i32 1 seq_cst, align 4
  %cmp.i = icmp eq i32 %5, 1
  br i1 %cmp.i, label %if.then.i, label %if.end11

if.then.i:                                        ; preds = %if.then6
  invoke void @_ZN6params5resetEv(ptr noundef nonnull align 8 dereferenceable(12) %3)
          to label %invoke.cont.i.i.i unwind label %terminate.lpad.i.i.i

invoke.cont.i.i.i:                                ; preds = %if.then.i
  %6 = load ptr, ptr %3, align 8
  %tobool.not.i.i.i.i.i.i = icmp eq ptr %6, null
  br i1 %tobool.not.i.i.i.i.i.i, label %_Z7deallocI6paramsEvPT_.exit.i, label %if.then.i.i.i.i.i.i

if.then.i.i.i.i.i.i:                              ; preds = %invoke.cont.i.i.i
  %add.ptr.i.i.i.i.i.i.i = getelementptr inbounds i8, ptr %6, i64 -8
  invoke void @_ZN6memory10deallocateEPv(ptr noundef nonnull %add.ptr.i.i.i.i.i.i.i)
          to label %_Z7deallocI6paramsEvPT_.exit.i unwind label %terminate.lpad.i.i.i.i.i

terminate.lpad.i.i.i.i.i:                         ; preds = %if.then.i.i.i.i.i.i
  %7 = landingpad { ptr, i32 }
          catch ptr null
  %8 = extractvalue { ptr, i32 } %7, 0
  tail call void @__clang_call_terminate(ptr %8) #17
  unreachable

terminate.lpad.i.i.i:                             ; preds = %if.then.i
  %9 = landingpad { ptr, i32 }
          catch ptr null
  %10 = extractvalue { ptr, i32 } %9, 0
  tail call void @__clang_call_terminate(ptr %10) #17
  unreachable

_Z7deallocI6paramsEvPT_.exit.i:                   ; preds = %if.then.i.i.i.i.i.i, %invoke.cont.i.i.i
  tail call void @_ZN6memory10deallocateEPv(ptr noundef nonnull %3)
  br label %if.end11

if.end11:                                         ; preds = %_Z7deallocI6paramsEvPT_.exit.i, %if.then6, %if.else, %if.then
  ret void
}